; Function Attrs: nounwind uwtable
define internal void @brinbuildCallbackParallel(ptr noundef %0, ptr noundef readonly captures(none) %1, ptr noundef readonly captures(none) %2, ptr noundef readonly captures(none) %3, i1 zeroext %4, ptr noundef captures(none) %5) #0 {
  %7 = alloca i64, align 8
  %.val = load i16, ptr %1, align 2
  %8 = getelementptr i8, ptr %1, i64 2
  %.val19 = load i16, ptr %8, align 2
  %9 = zext i16 %.val to i32
  %10 = shl nuw i32 %9, 16
  %11 = zext i16 %.val19 to i32
  %12 = or disjoint i32 %10, %11
  %.fr = freeze i32 %12
  %13 = getelementptr inbounds nuw i8, ptr %5, i64 32
  %14 = load i32, ptr %13, align 8
  %15 = icmp ult i32 %.fr, %14
  br i1 %15, label %22, label %16

16:                                               ; preds = %6
  %17 = getelementptr inbounds nuw i8, ptr %5, i64 28
  %18 = load i32, ptr %17, align 4
  %19 = add i32 %14, -1
  %20 = add i32 %19, %18
  %21 = icmp ugt i32 %.fr, %20
  br i1 %21, label %22, label %46

22:                                               ; preds = %16, %6
  call void @llvm.lifetime.start.p0(i64 8, ptr nonnull %7) #10
  %23 = getelementptr inbounds nuw i8, ptr %5, i64 56
  %24 = load ptr, ptr %23, align 8
  %25 = getelementptr inbounds nuw i8, ptr %24, i64 1
  %26 = load i8, ptr %25, align 1, !range !4, !noundef !5
  %27 = trunc nuw i8 %26 to i1
  br i1 %27, label %form_and_spill_tuple.exit, label %28

28:                                               ; preds = %22
  %29 = getelementptr inbounds nuw i8, ptr %5, i64 48
  %30 = load ptr, ptr %29, align 8
  %31 = call ptr @brin_form_tuple(ptr noundef %30, i32 noundef %14, ptr noundef nonnull %24, ptr noundef nonnull %7) #10
  %32 = getelementptr inbounds nuw i8, ptr %5, i64 104
  %33 = load ptr, ptr %32, align 8
  %34 = load i64, ptr %7, align 8
  call void @tuplesort_putbrintuple(ptr noundef %33, ptr noundef %31, i64 noundef %34) #10
  %35 = getelementptr inbounds nuw i8, ptr %5, i64 8
  %36 = load double, ptr %35, align 8
  %37 = fadd double %36, 1.000000e+00
  store double %37, ptr %35, align 8
  call void @pfree(ptr noundef %31) #10
  %.pre = load ptr, ptr %23, align 8
  br label %form_and_spill_tuple.exit

form_and_spill_tuple.exit:                        ; preds = %22, %28
  %38 = phi ptr [ %24, %22 ], [ %.pre, %28 ]
  call void @llvm.lifetime.end.p0(i64 8, ptr nonnull %7) #10
  %39 = getelementptr inbounds nuw i8, ptr %5, i64 28
  %40 = load i32, ptr %39, align 4
  %41 = urem i32 %.fr, %40
  %42 = sub nuw i32 %.fr, %41
  store i32 %42, ptr %13, align 8
  %43 = getelementptr inbounds nuw i8, ptr %5, i64 48
  %44 = load ptr, ptr %43, align 8
  %45 = call ptr @brin_memtuple_initialize(ptr noundef %38, ptr noundef %44) #10
  br label %46

46:                                               ; preds = %form_and_spill_tuple.exit, %16
  %47 = getelementptr inbounds nuw i8, ptr %5, i64 48
  %48 = load ptr, ptr %47, align 8
  %49 = getelementptr inbounds nuw i8, ptr %5, i64 56
  %50 = load ptr, ptr %49, align 8
  %51 = getelementptr inbounds nuw i8, ptr %50, i64 1
  %52 = getelementptr inbounds nuw i8, ptr %48, i64 16
  %53 = load ptr, ptr %52, align 8
  %54 = load i32, ptr %53, align 8
  %55 = icmp sgt i32 %54, 0
  br i1 %55, label %.lr.ph.i, label %add_values_to_range.exit

.lr.ph.i:                                         ; preds = %46
  %56 = getelementptr inbounds nuw i8, ptr %50, i64 40
  %57 = getelementptr inbounds nuw i8, ptr %48, i64 40
  %58 = getelementptr inbounds nuw i8, ptr %0, i64 440
  %59 = ptrtoint ptr %48 to i64
  br label %60

60:                                               ; preds = %111, %.lr.ph.i
  %indvars.iv.i = phi i64 [ 0, %.lr.ph.i ], [ %indvars.iv.next.i, %111 ]
  %61 = getelementptr inbounds nuw [0 x %struct.BrinValues], ptr %56, i64 0, i64 %indvars.iv.i
  %62 = load i8, ptr %51, align 1, !range !4, !noundef !5
  %63 = trunc nuw i8 %62 to i1
  br i1 %63, label %72, label %64

64:                                               ; preds = %60
  %65 = getelementptr inbounds nuw i8, ptr %61, i64 2
  %66 = load i8, ptr %65, align 2, !range !4, !noundef !5
  %67 = trunc nuw i8 %66 to i1
  br i1 %67, label %72, label %68

68:                                               ; preds = %64
  %69 = getelementptr inbounds nuw i8, ptr %61, i64 3
  %70 = load i8, ptr %69, align 1, !range !4, !noundef !5
  %71 = trunc nuw i8 %70 to i1
  br label %72

72:                                               ; preds = %68, %64, %60
  %73 = phi i1 [ false, %60 ], [ true, %64 ], [ %71, %68 ]
  %74 = getelementptr inbounds nuw [0 x ptr], ptr %57, i64 0, i64 %indvars.iv.i
  %75 = load ptr, ptr %74, align 8
  %76 = getelementptr inbounds nuw i8, ptr %75, i64 2
  %77 = load i8, ptr %76, align 2, !range !4, !noundef !5
  %78 = trunc nuw i8 %77 to i1
  br i1 %78, label %79, label %88

79:                                               ; preds = %72
  %80 = getelementptr inbounds nuw i8, ptr %3, i64 %indvars.iv.i
  %81 = load i8, ptr %80, align 1, !range !4, !noundef !5
  %82 = trunc nuw i8 %81 to i1
  br i1 %82, label %83, label %88

83:                                               ; preds = %79
  %84 = getelementptr inbounds nuw i8, ptr %61, i64 2
  %85 = load i8, ptr %84, align 2, !range !4, !noundef !5
  %86 = trunc nuw i8 %85 to i1
  br i1 %86, label %111, label %87

87:                                               ; preds = %83
  store i8 1, ptr %84, align 2
  br label %111

88:                                               ; preds = %79, %72
  %89 = trunc i64 %indvars.iv.i to i16
  %90 = add i16 %89, 1
  %91 = call ptr @index_getprocinfo(ptr noundef %0, i16 noundef signext %90, i16 noundef zeroext 2) #10
  %92 = load ptr, ptr %58, align 8
  %93 = getelementptr inbounds nuw i32, ptr %92, i64 %indvars.iv.i
  %94 = load i32, ptr %93, align 4
  %95 = ptrtoint ptr %61 to i64
  %96 = getelementptr inbounds nuw i64, ptr %2, i64 %indvars.iv.i
  %97 = load i64, ptr %96, align 8
  %98 = getelementptr inbounds nuw i8, ptr %3, i64 %indvars.iv.i
  %99 = load i8, ptr %98, align 1, !range !4, !noundef !5
  %100 = zext nneg i8 %99 to i64
  %101 = call i64 @FunctionCall4Coll(ptr noundef %91, i32 noundef %94, i64 noundef %59, i64 noundef %95, i64 noundef %97, i64 noundef %100) #10
  br i1 %73, label %102, label %111

102:                                              ; preds = %88
  %103 = getelementptr inbounds nuw i8, ptr %61, i64 2
  %104 = load i8, ptr %103, align 2, !range !4, !noundef !5
  %105 = trunc nuw i8 %104 to i1
  br i1 %105, label %111, label %106

106:                                              ; preds = %102
  %107 = getelementptr inbounds nuw i8, ptr %61, i64 3
  %108 = load i8, ptr %107, align 1, !range !4, !noundef !5
  %109 = trunc nuw i8 %108 to i1
  br i1 %109, label %111, label %110

110:                                              ; preds = %106
  store i8 1, ptr %103, align 2
  br label %111

111:                                              ; preds = %110, %106, %102, %88, %87, %83
  %indvars.iv.next.i = add nuw nsw i64 %indvars.iv.i, 1
  %112 = load ptr, ptr %52, align 8
  %113 = load i32, ptr %112, align 8
  %114 = sext i32 %113 to i64
  %115 = icmp slt i64 %indvars.iv.next.i, %114
  br i1 %115, label %60, label %add_values_to_range.exit, !llvm.loop !14

add_values_to_range.exit:                         ; preds = %111, %46
  store i8 0, ptr %51, align 1
  ret void
}